#include <math.h>
#include <stdio.h>
#include <stdlib.h>
#include <string.h>
#include <iostream>
using namespace std;

/*
@file 1000012837_1.cpp
@date 20101208
@author ???
@description ???????
*/
int main()
{
	char str[101], *p = NULL;
	int l, flag = 0;
	cin.get(str, 101);//?????
	l = strlen(str);//l??????
	for(p = str; p < str + l; p++)//????????????????
	{
		if(*p == ' ')	//???????
		{
			//?????????????????1??????????????
			if(flag == 0)	
			{
				cout << *p;
				flag = 1;	
			}
		}
		else	//???????????0??????
		{
			flag = 0;
			cout << *p;
		}
	}
	return 0;
}